(dp1
S'000099'
p2
(lp3
(dp4
S'difficult'
p5
I0
sS'pose'
p6
S'Unspecified'
p7
sS'name'
p8
S'cat'
p9
sS'bbox'
p10
(lp11
I4
aI77
aI320
aI252
asS'truncated'
p12
I0
sasS'000098'
p13
(lp14
(dp15
g5
I0
sg6
S'Unspecified'
p16
sg8
S'cat'
p17
sg10
(lp18
I69
aI70
aI317
aI162
asg12
I1
sasS'000095'
p19
(lp20
(dp21
g5
I0
sg6
S'Unspecified'
p22
sg8
S'train'
p23
sg10
(lp24
I20
aI52
aI439
aI285
asg12
I0
sa(dp25
g5
I0
sg6
S'Unspecified'
p26
sg8
S'train'
p27
sg10
(lp28
I1
aI125
aI114
aI234
asg12
I1
sasS'000094'
p29
(lp30
(dp31
g5
I0
sg6
S'Right'
p32
sg8
S'motorbike'
p33
sg10
(lp34
I16
aI1
aI500
aI333
asg12
I1
sa(dp35
g5
I1
sg6
S'Unspecified'
p36
sg8
S'motorbike'
p37
sg10
(lp38
I1
aI54
aI144
aI161
asg12
I1
sasS'000097'
p39
(lp40
(dp41
g5
I0
sg6
S'Unspecified'
p42
sg8
S'sofa'
p43
sg10
(lp44
I58
aI174
aI270
aI285
asg12
I1
sa(dp45
g5
I0
sg6
S'Right'
p46
sg8
S'chair'
p47
sg10
(lp48
I1
aI220
aI156
aI375
asg12
I1
sa(dp49
g5
I0
sg6
S'Unspecified'
p50
sg8
S'person'
p51
sg10
(lp52
I208
aI139
aI267
aI235
asg12
I1
sasS'000096'
p53
(lp54
(dp55
g5
I0
sg6
S'Frontal'
p56
sg8
S'person'
p57
sg10
(lp58
I2
aI144
aI176
aI500
asg12
I1
sa(dp59
g5
I0
sg6
S'Frontal'
p60
sg8
S'person'
p61
sg10
(lp62
I140
aI109
aI330
aI500
asg12
I1
sasS'000091'
p63
(lp64
(dp65
g5
I0
sg6
S'Unspecified'
p66
sg8
S'car'
p67
sg10
(lp68
I125
aI241
aI195
aI284
asg12
I0
sa(dp69
g5
I0
sg6
S'Unspecified'
p70
sg8
S'car'
p71
sg10
(lp72
I81
aI248
aI105
aI268
asg12
I1
sa(dp73
g5
I0
sg6
S'Unspecified'
p74
sg8
S'car'
p75
sg10
(lp76
I91
aI250
aI126
aI274
asg12
I0
sasS'000090'
p77
(lp78
(dp79
g5
I0
sg6
S'Left'
p80
sg8
S'chair'
p81
sg10
(lp82
I193
aI65
aI346
aI278
asg12
I0
sa(dp83
g5
I0
sg6
S'Left'
p84
sg8
S'person'
p85
sg10
(lp86
I33
aI33
aI307
aI255
asg12
I0
sa(dp87
g5
I1
sg6
S'Unspecified'
p88
sg8
S'person'
p89
sg10
(lp90
I140
aI209
aI416
aI333
asg12
I1
sasS'000093'
p91
(lp92
(dp93
g5
I0
sg6
S'Unspecified'
p94
sg8
S'dog'
p95
sg10
(lp96
I175
aI125
aI344
aI254
asg12
I0
sa(dp97
g5
I0
sg6
S'Unspecified'
p98
sg8
S'chair'
p99
sg10
(lp100
I53
aI3
aI500
aI338
asg12
I1
sasS'000092'
p101
(lp102
(dp103
g5
I0
sg6
S'Unspecified'
p104
sg8
S'cat'
p105
sg10
(lp106
I2
aI66
aI413
aI333
asg12
I0
sasS'000015'
p107
(lp108
(dp109
g5
I0
sg6
S'Left'
p110
sg8
S'bicycle'
p111
sg10
(lp112
I77
aI136
aI360
aI358
asg12
I0
sasS'000014'
p113
(lp114
(dp115
g5
I0
sg6
S'Left'
p116
sg8
S'bus'
p117
sg10
(lp118
I72
aI163
aI302
aI228
asg12
I0
sa(dp119
g5
I0
sg6
S'Right'
p120
sg8
S'car'
p121
sg10
(lp122
I185
aI194
aI500
aI316
asg12
I1
sa(dp123
g5
I0
sg6
S'Left'
p124
sg8
S'car'
p125
sg10
(lp126
I416
aI180
aI500
aI222
asg12
I0
sa(dp127
g5
I0
sg6
S'Frontal'
p128
sg8
S'person'
p129
sg10
(lp130
I314
aI8
aI344
aI65
asg12
I1
sa(dp131
g5
I0
sg6
S'Frontal'
p132
sg8
S'person'
p133
sg10
(lp134
I331
aI4
aI361
aI61
asg12
I1
sa(dp135
g5
I0
sg6
S'Frontal'
p136
sg8
S'person'
p137
sg10
(lp138
I357
aI8
aI401
aI61
asg12
I1
sa(dp139
g5
I1
sg6
S'Unspecified'
p140
sg8
S'car'
p141
sg10
(lp142
I163
aI197
aI267
aI244
asg12
I1
sasS'000017'
p143
(lp144
(dp145
g5
I0
sg6
S'Left'
p146
sg8
S'person'
p147
sg10
(lp148
I185
aI62
aI279
aI199
asg12
I0
sa(dp149
g5
I0
sg6
S'Left'
p150
sg8
S'horse'
p151
sg10
(lp152
I90
aI78
aI403
aI336
asg12
I0
sasS'000016'
p153
(lp154
(dp155
g5
I0
sg6
S'Rear'
p156
sg8
S'bicycle'
p157
sg10
(lp158
I92
aI72
aI305
aI473
asg12
I0
sasS'000011'
p159
(lp160
(dp161
g5
I0
sg6
S'Unspecified'
p162
sg8
S'cat'
p163
sg10
(lp164
I126
aI51
aI330
aI308
asg12
I0
sasS'000010'
p165
(lp166
(dp167
g5
I0
sg6
S'Rear'
p168
sg8
S'horse'
p169
sg10
(lp170
I87
aI97
aI258
aI427
asg12
I0
sa(dp171
g5
I0
sg6
S'Unspecified'
p172
sg8
S'person'
p173
sg10
(lp174
I133
aI72
aI245
aI284
asg12
I0
sasS'000013'
p175
(lp176
(dp177
g5
I0
sg6
S'Right'
p178
sg8
S'cow'
p179
sg10
(lp180
I299
aI160
aI446
aI252
asg12
I0
sasS'000012'
p181
(lp182
(dp183
g5
I0
sg6
S'Rear'
p184
sg8
S'car'
p185
sg10
(lp186
I156
aI97
aI351
aI270
asg12
I0
sasS'000019'
p187
(lp188
(dp189
g5
I0
sg6
S'Right'
p190
sg8
S'cat'
p191
sg10
(lp192
I231
aI88
aI483
aI256
asg12
I0
sa(dp193
g5
I0
sg6
S'Right'
p194
sg8
S'cat'
p195
sg10
(lp196
I11
aI113
aI266
aI259
asg12
I0
sasS'000018'
p197
(lp198
(dp199
g5
I0
sg6
S'Left'
p200
sg8
S'dog'
p201
sg10
(lp202
I31
aI30
aI358
aI279
asg12
I0
sasS'000020'
p203
(lp204
(dp205
g5
I0
sg6
S'Unspecified'
p206
sg8
S'car'
p207
sg10
(lp208
I33
aI148
aI371
aI416
asg12
I0
sasS'000021'
p209
(lp210
(dp211
g5
I0
sg6
S'Right'
p212
sg8
S'dog'
p213
sg10
(lp214
I1
aI235
aI182
aI388
asg12
I1
sa(dp215
g5
I0
sg6
S'Unspecified'
p216
sg8
S'person'
p217
sg10
(lp218
I210
aI36
aI336
aI482
asg12
I0
sa(dp219
g5
I0
sg6
S'Unspecified'
p220
sg8
S'person'
p221
sg10
(lp222
I46
aI82
aI170
aI365
asg12
I0
sa(dp223
g5
I0
sg6
S'Unspecified'
p224
sg8
S'person'
p225
sg10
(lp226
I11
aI181
aI142
aI419
asg12
I0
sasS'000022'
p227
(lp228
(dp229
g5
I0
sg6
S'Right'
p230
sg8
S'horse'
p231
sg10
(lp232
I68
aI103
aI368
aI283
asg12
I0
sa(dp233
g5
I0
sg6
S'Right'
p234
sg8
S'person'
p235
sg10
(lp236
I186
aI44
aI255
aI230
asg12
I0
sasS'000023'
p237
(lp238
(dp239
g5
I0
sg6
S'Unspecified'
p240
sg8
S'bicycle'
p241
sg10
(lp242
I9
aI230
aI245
aI500
asg12
I1
sa(dp243
g5
I0
sg6
S'Frontal'
p244
sg8
S'bicycle'
p245
sg10
(lp246
I230
aI220
aI334
aI500
asg12
I1
sa(dp247
g5
I1
sg6
S'Unspecified'
p248
sg8
S'bicycle'
p249
sg10
(lp250
I2
aI178
aI90
aI500
asg12
I1
sa(dp251
g5
I0
sg6
S'Unspecified'
p252
sg8
S'person'
p253
sg10
(lp254
I2
aI1
aI117
aI369
asg12
I1
sa(dp255
g5
I0
sg6
S'Unspecified'
p256
sg8
S'person'
p257
sg10
(lp258
I3
aI2
aI243
aI462
asg12
I1
sa(dp259
g5
I0
sg6
S'Unspecified'
p260
sg8
S'person'
p261
sg10
(lp262
I225
aI1
aI334
aI486
asg12
I1
sasS'000024'
p263
(lp264
(dp265
g5
I0
sg6
S'Unspecified'
p266
sg8
S'train'
p267
sg10
(lp268
I196
aI165
aI489
aI247
asg12
I1
sasS'000025'
p269
(lp270
(dp271
g5
I0
sg6
S'Unspecified'
p272
sg8
S'cow'
p273
sg10
(lp274
I2
aI84
aI59
aI248
asg12
I1
sa(dp275
g5
I0
sg6
S'Unspecified'
p276
sg8
S'cow'
p277
sg10
(lp278
I68
aI115
aI233
aI279
asg12
I1
sa(dp279
g5
I0
sg6
S'Unspecified'
p280
sg8
S'cow'
p281
sg10
(lp282
I64
aI173
aI377
aI373
asg12
I1
sa(dp283
g5
I0
sg6
S'Unspecified'
p284
sg8
S'person'
p285
sg10
(lp286
I320
aI2
aI496
aI375
asg12
I1
sa(dp287
g5
I0
sg6
S'Unspecified'
p288
sg8
S'person'
p289
sg10
(lp290
I221
aI4
aI341
aI374
asg12
I1
sa(dp291
g5
I0
sg6
S'Unspecified'
p292
sg8
S'person'
p293
sg10
(lp294
I135
aI14
aI220
aI148
asg12
I1
sa(dp295
g5
I0
sg6
S'Frontal'
p296
sg8
S'cow'
p297
sg10
(lp298
I69
aI43
aI156
aI177
asg12
I1
sa(dp299
g5
I0
sg6
S'Left'
p300
sg8
S'person'
p301
sg10
(lp302
I58
aI54
aI104
aI139
asg12
I1
sa(dp303
g5
I0
sg6
S'Frontal'
p304
sg8
S'person'
p305
sg10
(lp306
I279
aI1
aI331
aI86
asg12
I1
sa(dp307
g5
I0
sg6
S'Right'
p308
sg8
S'person'
p309
sg10
(lp310
I320
aI22
aI344
aI96
asg12
I1
sa(dp311
g5
I1
sg6
S'Unspecified'
p312
sg8
S'person'
p313
sg10
(lp314
I337
aI1
aI390
aI107
asg12
I1
sasS'000026'
p315
(lp316
(dp317
g5
I0
sg6
S'Right'
p318
sg8
S'car'
p319
sg10
(lp320
I90
aI125
aI337
aI212
asg12
I0
sasS'000027'
p321
(lp322
(dp323
g5
I0
sg6
S'Unspecified'
p324
sg8
S'person'
p325
sg10
(lp326
I174
aI101
aI349
aI351
asg12
I0
sasS'000028'
p327
(lp328
(dp329
g5
I0
sg6
S'Unspecified'
p330
sg8
S'cat'
p331
sg10
(lp332
I63
aI18
aI374
aI500
asg12
I1
sasS'000029'
p333
(lp334
(dp335
g5
I0
sg6
S'Unspecified'
p336
sg8
S'dog'
p337
sg10
(lp338
I56
aI63
aI284
aI290
asg12
I0
sasS'000039'
p339
(lp340
(dp341
g5
I0
sg6
S'Frontal'
p342
sg8
S'tvmonitor'
p343
sg10
(lp344
I156
aI89
aI344
aI279
asg12
I0
sasS'000038'
p345
(lp346
(dp347
g5
I0
sg6
S'Right'
p348
sg8
S'bicycle'
p349
sg10
(lp350
I159
aI178
aI279
aI246
asg12
I0
sa(dp351
g5
I0
sg6
S'Right'
p352
sg8
S'motorbike'
p353
sg10
(lp354
I1
aI235
aI43
aI315
asg12
I1
sa(dp355
g5
I0
sg6
S'Right'
p356
sg8
S'person'
p357
sg10
(lp358
I192
aI111
aI261
aI240
asg12
I0
sasS'000037'
p359
(lp360
(dp361
g5
I0
sg6
S'Left'
p362
sg8
S'dog'
p363
sg10
(lp364
I61
aI96
aI464
aI339
asg12
I0
sasS'000036'
p365
(lp366
(dp367
g5
I0
sg6
S'Unspecified'
p368
sg8
S'dog'
p369
sg10
(lp370
I27
aI79
aI319
aI344
asg12
I0
sasS'000035'
p371
(lp372
(dp373
g5
I0
sg6
S'Unspecified'
p374
sg8
S'person'
p375
sg10
(lp376
I1
aI96
aI191
aI361
asg12
I1
sa(dp377
g5
I0
sg6
S'Frontal'
p378
sg8
S'person'
p379
sg10
(lp380
I218
aI98
aI465
aI318
asg12
I1
sa(dp381
g5
I1
sg6
S'Unspecified'
p382
sg8
S'person'
p383
sg10
(lp384
I468
aI195
aI500
aI317
asg12
I1
sa(dp385
g5
I1
sg6
S'Unspecified'
p386
sg8
S'diningtable'
p387
sg10
(lp388
I3
aI304
aI500
aI375
asg12
I1
sasS'000034'
p389
(lp390
(dp391
g5
I0
sg6
S'Unspecified'
p392
sg8
S'train'
p393
sg10
(lp394
I116
aI167
aI360
aI400
asg12
I1
sa(dp395
g5
I0
sg6
S'Unspecified'
p396
sg8
S'train'
p397
sg10
(lp398
I141
aI153
aI333
aI229
asg12
I1
sasS'000033'
p399
(lp400
(dp401
g5
I0
sg6
S'Unspecified'
p402
sg8
S'aeroplane'
p403
sg10
(lp404
I9
aI107
aI499
aI263
asg12
I0
sa(dp405
g5
I0
sg6
S'Left'
p406
sg8
S'aeroplane'
p407
sg10
(lp408
I421
aI200
aI482
aI226
asg12
I0
sa(dp409
g5
I0
sg6
S'Left'
p410
sg8
S'aeroplane'
p411
sg10
(lp412
I325
aI188
aI411
aI223
asg12
I1
sasS'000032'
p413
(lp414
(dp415
g5
I0
sg6
S'Frontal'
p416
sg8
S'aeroplane'
p417
sg10
(lp418
I104
aI78
aI375
aI183
asg12
I0
sa(dp419
g5
I0
sg6
S'Left'
p420
sg8
S'aeroplane'
p421
sg10
(lp422
I133
aI88
aI197
aI123
asg12
I0
sa(dp423
g5
I0
sg6
S'Rear'
p424
sg8
S'person'
p425
sg10
(lp426
I195
aI180
aI213
aI229
asg12
I0
sa(dp427
g5
I0
sg6
S'Rear'
p428
sg8
S'person'
p429
sg10
(lp430
I26
aI189
aI44
aI238
asg12
I0
sasS'000031'
p431
(lp432
(dp433
g5
I0
sg6
S'Unspecified'
p434
sg8
S'train'
p435
sg10
(lp436
I41
aI77
aI430
aI255
asg12
I0
sasS'000030'
p437
(lp438
(dp439
g5
I0
sg6
S'Right'
p440
sg8
S'bicycle'
p441
sg10
(lp442
I36
aI205
aI180
aI289
asg12
I0
sa(dp443
g5
I0
sg6
S'Unspecified'
p444
sg8
S'person'
p445
sg10
(lp446
I51
aI160
aI150
aI292
asg12
I0
sa(dp447
g5
I0
sg6
S'Frontal'
p448
sg8
S'person'
p449
sg10
(lp450
I295
aI138
aI450
aI290
asg12
I0
sasS'000048'
p451
(lp452
(dp453
g5
I0
sg6
S'Unspecified'
p454
sg8
S'bird'
p455
sg10
(lp456
I58
aI107
aI291
aI465
asg12
I0
sa(dp457
g5
I0
sg6
S'Unspecified'
p458
sg8
S'person'
p459
sg10
(lp460
I2
aI1
aI302
aI500
asg12
I1
sasS'000049'
p461
(lp462
(dp463
g5
I0
sg6
S'Unspecified'
p464
sg8
S'cat'
p465
sg10
(lp466
I178
aI131
aI356
aI227
asg12
I0
sasS'000042'
p467
(lp468
(dp469
g5
I0
sg6
S'Unspecified'
p470
sg8
S'train'
p471
sg10
(lp472
I263
aI32
aI500
aI295
asg12
I1
sa(dp473
g5
I0
sg6
S'Unspecified'
p474
sg8
S'train'
p475
sg10
(lp476
I1
aI36
aI235
aI299
asg12
I1
sasS'000043'
p477
(lp478
(dp479
g5
I0
sg6
S'Unspecified'
p480
sg8
S'person'
p481
sg10
(lp482
I174
aI229
aI324
aI375
asg12
I1
sa(dp483
g5
I0
sg6
S'Unspecified'
p484
sg8
S'person'
p485
sg10
(lp486
I5
aI145
aI250
aI500
asg12
I1
sa(dp487
g5
I0
sg6
S'Unspecified'
p488
sg8
S'person'
p489
sg10
(lp490
I19
aI6
aI323
aI500
asg12
I1
sasS'000040'
p491
(lp492
(dp493
g5
I0
sg6
S'Right'
p494
sg8
S'bird'
p495
sg10
(lp496
I1
aI52
aI384
aI290
asg12
I0
sasS'000041'
p497
(lp498
(dp499
g5
I0
sg6
S'Frontal'
p500
sg8
S'tvmonitor'
p501
sg10
(lp502
I363
aI47
aI432
aI107
asg12
I0
sa(dp503
g5
I0
sg6
S'Rear'
p504
sg8
S'person'
p505
sg10
(lp506
I216
aI92
aI307
aI302
asg12
I0
sa(dp507
g5
I0
sg6
S'Frontal'
p508
sg8
S'person'
p509
sg10
(lp510
I164
aI148
aI227
aI244
asg12
I1
sasS'000046'
p511
(lp512
(dp513
g5
I0
sg6
S'Rear'
p514
sg8
S'bird'
p515
sg10
(lp516
I211
aI234
aI317
aI366
asg12
I0
sasS'000047'
p517
(lp518
(dp519
g5
I0
sg6
S'Frontal'
p520
sg8
S'car'
p521
sg10
(lp522
I15
aI1
aI459
aI312
asg12
I0
sa(dp523
g5
I0
sg6
S'Unspecified'
p524
sg8
S'chair'
p525
sg10
(lp526
I439
aI170
aI487
aI230
asg12
I1
sasS'000044'
p527
(lp528
(dp529
g5
I0
sg6
S'Unspecified'
p530
sg8
S'chair'
p531
sg10
(lp532
I1
aI1
aI370
aI330
asg12
I1
sa(dp533
g5
I0
sg6
S'Right'
p534
sg8
S'cat'
p535
sg10
(lp536
I99
aI101
aI312
aI213
asg12
I0
sasS'000045'
p537
(lp538
(dp539
g5
I0
sg6
S'Frontal'
p540
sg8
S'tvmonitor'
p541
sg10
(lp542
I280
aI64
aI483
aI252
asg12
I0
sasS'000059'
p543
(lp544
(dp545
g5
I0
sg6
S'Frontal'
p546
sg8
S'tvmonitor'
p547
sg10
(lp548
I88
aI161
aI142
aI206
asg12
I0
sa(dp549
g5
I0
sg6
S'Frontal'
p550
sg8
S'tvmonitor'
p551
sg10
(lp552
I177
aI135
aI273
aI200
asg12
I0
sa(dp553
g5
I0
sg6
S'Unspecified'
p554
sg8
S'person'
p555
sg10
(lp556
I110
aI210
aI328
aI500
asg12
I1
sa(dp557
g5
I0
sg6
S'Unspecified'
p558
sg8
S'person'
p559
sg10
(lp560
I72
aI272
aI115
aI356
asg12
I1
sa(dp561
g5
I0
sg6
S'Unspecified'
p562
sg8
S'person'
p563
sg10
(lp564
I125
aI274
aI171
aI353
asg12
I1
sa(dp565
g5
I1
sg6
S'Unspecified'
p566
sg8
S'chair'
p567
sg10
(lp568
I285
aI397
aI349
aI500
asg12
I1
sasS'000058'
p569
(lp570
(dp571
g5
I0
sg6
S'Unspecified'
p572
sg8
S'person'
p573
sg10
(lp574
I334
aI1
aI436
aI373
asg12
I0
sa(dp575
g5
I0
sg6
S'Unspecified'
p576
sg8
S'person'
p577
sg10
(lp578
I196
aI80
aI309
aI326
asg12
I0
sa(dp579
g5
I0
sg6
S'Unspecified'
p580
sg8
S'person'
p581
sg10
(lp582
I279
aI53
aI334
aI267
asg12
I0
sa(dp583
g5
I0
sg6
S'Unspecified'
p584
sg8
S'motorbike'
p585
sg10
(lp586
I29
aI109
aI359
aI375
asg12
I1
sasS'000051'
p587
(lp588
(dp589
g5
I0
sg6
S'Unspecified'
p590
sg8
S'motorbike'
p591
sg10
(lp592
I352
aI138
aI500
aI375
asg12
I1
sa(dp593
g5
I0
sg6
S'Unspecified'
p594
sg8
S'motorbike'
p595
sg10
(lp596
I105
aI1
aI427
aI245
asg12
I0
sa(dp597
g5
I1
sg6
S'Unspecified'
p598
sg8
S'person'
p599
sg10
(lp600
I415
aI61
aI465
aI195
asg12
I0
sasS'000050'
p601
(lp602
(dp603
g5
I1
sg6
S'Unspecified'
p604
sg8
S'chair'
p605
sg10
(lp606
I405
aI153
aI493
aI255
asg12
I1
sa(dp607
g5
I1
sg6
S'Unspecified'
p608
sg8
S'chair'
p609
sg10
(lp610
I275
aI129
aI312
aI170
asg12
I1
sa(dp611
g5
I0
sg6
S'Unspecified'
p612
sg8
S'bottle'
p613
sg10
(lp614
I360
aI192
aI381
aI265
asg12
I0
sa(dp615
g5
I0
sg6
S'Unspecified'
p616
sg8
S'bottle'
p617
sg10
(lp618
I399
aI181
aI422
aI235
asg12
I1
sa(dp619
g5
I0
sg6
S'Unspecified'
p620
sg8
S'bottle'
p621
sg10
(lp622
I270
aI180
aI291
aI247
asg12
I0
sa(dp623
g5
I0
sg6
S'Unspecified'
p624
sg8
S'bottle'
p625
sg10
(lp626
I294
aI176
aI312
aI241
asg12
I0
sa(dp627
g5
I0
sg6
S'Unspecified'
p628
sg8
S'person'
p629
sg10
(lp630
I68
aI96
aI293
aI375
asg12
I1
sa(dp631
g5
I0
sg6
S'Unspecified'
p632
sg8
S'person'
p633
sg10
(lp634
I1
aI71
aI87
aI332
asg12
I1
sa(dp635
g5
I0
sg6
S'Unspecified'
p636
sg8
S'person'
p637
sg10
(lp638
I185
aI68
aI259
aI197
asg12
I1
sa(dp639
g5
I0
sg6
S'Unspecified'
p640
sg8
S'person'
p641
sg10
(lp642
I286
aI64
aI406
aI238
asg12
I1
sasS'000053'
p643
(lp644
(dp645
g5
I0
sg6
S'Unspecified'
p646
sg8
S'cat'
p647
sg10
(lp648
I36
aI12
aI425
aI262
asg12
I0
sasS'000052'
p649
(lp650
(dp651
g5
I0
sg6
S'Unspecified'
p652
sg8
S'pottedplant'
p653
sg10
(lp654
I414
aI232
aI458
aI263
asg12
I0
sa(dp655
g5
I0
sg6
S'Unspecified'
p656
sg8
S'pottedplant'
p657
sg10
(lp658
I291
aI237
aI333
aI270
asg12
I0
sa(dp659
g5
I0
sg6
S'Unspecified'
p660
sg8
S'pottedplant'
p661
sg10
(lp662
I183
aI238
aI227
aI273
asg12
I0
sa(dp663
g5
I0
sg6
S'Unspecified'
p664
sg8
S'pottedplant'
p665
sg10
(lp666
I52
aI244
aI99
aI274
asg12
I0
sa(dp667
g5
I0
sg6
S'Unspecified'
p668
sg8
S'pottedplant'
p669
sg10
(lp670
I62
aI96
aI107
aI132
asg12
I0
sa(dp671
g5
I0
sg6
S'Unspecified'
p672
sg8
S'pottedplant'
p673
sg10
(lp674
I184
aI94
aI225
aI128
asg12
I0
sasS'000055'
p675
(lp676
(dp677
g5
I0
sg6
S'Unspecified'
p678
sg8
S'motorbike'
p679
sg10
(lp680
I209
aI132
aI275
aI222
asg12
I0
sa(dp681
g5
I0
sg6
S'Unspecified'
p682
sg8
S'person'
p683
sg10
(lp684
I219
aI107
aI273
aI187
asg12
I0
sa(dp685
g5
I1
sg6
S'Unspecified'
p686
sg8
S'person'
p687
sg10
(lp688
I465
aI273
aI483
aI324
asg12
I1
sa(dp689
g5
I0
sg6
S'Unspecified'
p690
sg8
S'person'
p691
sg10
(lp692
I436
aI279
aI456
aI327
asg12
I1
sasS'000054'
p693
(lp694
(dp695
g5
I0
sg6
S'Unspecified'
p696
sg8
S'bus'
p697
sg10
(lp698
I24
aI54
aI472
aI292
asg12
I0
sasS'000057'
p699
(lp700
(dp701
g5
I0
sg6
S'Left'
p702
sg8
S'bird'
p703
sg10
(lp704
I133
aI53
aI385
aI358
asg12
I0
sasS'000056'
p705
(lp706
(dp707
g5
I0
sg6
S'Frontal'
p708
sg8
S'horse'
p709
sg10
(lp710
I165
aI60
aI387
aI334
asg12
I1
sasS'000064'
p711
(lp712
(dp713
g5
I0
sg6
S'Frontal'
p714
sg8
S'bird'
p715
sg10
(lp716
I1
aI23
aI451
aI500
asg12
I1
sasS'000065'
p717
(lp718
(dp719
g5
I0
sg6
S'Right'
p720
sg8
S'dog'
p721
sg10
(lp722
I2
aI104
aI398
aI334
asg12
I1
sasS'000066'
p723
(lp724
(dp725
g5
I0
sg6
S'Rear'
p726
sg8
S'person'
p727
sg10
(lp728
I209
aI187
aI228
aI230
asg12
I0
sa(dp729
g5
I0
sg6
S'Rear'
p730
sg8
S'person'
p731
sg10
(lp732
I242
aI182
aI274
aI259
asg12
I0
sa(dp733
g5
I0
sg6
S'Rear'
p734
sg8
S'person'
p735
sg10
(lp736
I269
aI188
aI295
aI259
asg12
I0
sasS'000067'
p737
(lp738
(dp739
g5
I0
sg6
S'Right'
p740
sg8
S'aeroplane'
p741
sg10
(lp742
I44
aI72
aI450
aI210
asg12
I0
sasS'000060'
p743
(lp744
(dp745
g5
I0
sg6
S'Right'
p746
sg8
S'car'
p747
sg10
(lp748
I1
aI137
aI427
aI333
asg12
I1
sa(dp749
g5
I0
sg6
S'Right'
p750
sg8
S'car'
p751
sg10
(lp752
I1
aI62
aI479
aI235
asg12
I1
sa(dp753
g5
I0
sg6
S'Right'
p754
sg8
S'car'
p755
sg10
(lp756
I1
aI27
aI422
aI141
asg12
I1
sa(dp757
g5
I0
sg6
S'Right'
p758
sg8
S'car'
p759
sg10
(lp760
I44
aI7
aI458
aI134
asg12
I1
sa(dp761
g5
I0
sg6
S'Right'
p762
sg8
S'car'
p763
sg10
(lp764
I199
aI6
aI475
aI98
asg12
I1
sasS'000061'
p765
(lp766
(dp767
g5
I0
sg6
S'Unspecified'
p768
sg8
S'boat'
p769
sg10
(lp770
I274
aI11
aI437
aI279
asg12
I0
sa(dp771
g5
I0
sg6
S'Frontal'
p772
sg8
S'boat'
p773
sg10
(lp774
I184
aI214
aI281
aI252
asg12
I0
sasS'000062'
p775
(lp776
(dp777
g5
I0
sg6
S'Right'
p778
sg8
S'sheep'
p779
sg10
(lp780
I58
aI188
aI271
aI310
asg12
I0
sasS'000063'
p781
(lp782
(dp783
g5
I0
sg6
S'Unspecified'
p784
sg8
S'dog'
p785
sg10
(lp786
I123
aI115
aI379
aI275
asg12
I0
sa(dp787
g5
I0
sg6
S'Frontal'
p788
sg8
S'chair'
p789
sg10
(lp790
I75
aI1
aI428
aI375
asg12
I1
sasS'000068'
p791
(lp792
(dp793
g5
I0
sg6
S'Right'
p794
sg8
S'bird'
p795
sg10
(lp796
I27
aI45
aI266
aI375
asg12
I1
sasS'000069'
p797
(lp798
(dp799
g5
I0
sg6
S'Left'
p800
sg8
S'boat'
p801
sg10
(lp802
I19
aI64
aI424
aI190
asg12
I0
sa(dp803
g5
I0
sg6
S'Frontal'
p804
sg8
S'person'
p805
sg10
(lp806
I305
aI155
aI390
aI375
asg12
I0
sasS'000073'
p807
(lp808
(dp809
g5
I0
sg6
S'Unspecified'
p810
sg8
S'pottedplant'
p811
sg10
(lp812
I121
aI143
aI375
aI460
asg12
I0
sa(dp813
g5
I0
sg6
S'Unspecified'
p814
sg8
S'pottedplant'
p815
sg10
(lp816
I2
aI154
aI64
aI459
asg12
I1
sa(dp817
g5
I0
sg6
S'Unspecified'
p818
sg8
S'boat'
p819
sg10
(lp820
I270
aI155
aI375
aI331
asg12
I1
sa(dp821
g5
I0
sg6
S'Frontal'
p822
sg8
S'person'
p823
sg10
(lp824
I22
aI143
aI146
aI500
asg12
I0
sasS'000072'
p825
(lp826
(dp827
g5
I0
sg6
S'Unspecified'
p828
sg8
S'motorbike'
p829
sg10
(lp830
I40
aI71
aI333
aI473
asg12
I1
sa(dp831
g5
I1
sg6
S'Unspecified'
p832
sg8
S'motorbike'
p833
sg10
(lp834
I33
aI42
aI331
aI136
asg12
I1
sasS'000071'
p835
(lp836
(dp837
g5
I0
sg6
S'Left'
p838
sg8
S'car'
p839
sg10
(lp840
I61
aI75
aI443
aI274
asg12
I0
sasS'000070'
p841
(lp842
(dp843
g5
I0
sg6
S'Unspecified'
p844
sg8
S'pottedplant'
p845
sg10
(lp846
I358
aI163
aI378
aI197
asg12
I0
sa(dp847
g5
I1
sg6
S'Unspecified'
p848
sg8
S'pottedplant'
p849
sg10
(lp850
I313
aI156
aI358
aI198
asg12
I0
sasS'000077'
p851
(lp852
(dp853
g5
I0
sg6
S'Unspecified'
p854
sg8
S'cat'
p855
sg10
(lp856
I240
aI1
aI500
aI333
asg12
I1
sa(dp857
g5
I0
sg6
S'Unspecified'
p858
sg8
S'cat'
p859
sg10
(lp860
I2
aI1
aI306
aI333
asg12
I1
sasS'000076'
p861
(lp862
(dp863
g5
I0
sg6
S'Frontal'
p864
sg8
S'person'
p865
sg10
(lp866
I63
aI78
aI265
aI375
asg12
I1
sa(dp867
g5
I0
sg6
S'Frontal'
p868
sg8
S'person'
p869
sg10
(lp870
I257
aI75
aI448
aI375
asg12
I1
sa(dp871
g5
I0
sg6
S'Rear'
p872
sg8
S'person'
p873
sg10
(lp874
I362
aI130
aI446
aI261
asg12
I1
sa(dp875
g5
I0
sg6
S'Unspecified'
p876
sg8
S'person'
p877
sg10
(lp878
I472
aI157
aI500
aI343
asg12
I1
sa(dp879
g5
I0
sg6
S'Unspecified'
p880
sg8
S'person'
p881
sg10
(lp882
I457
aI209
aI478
aI255
asg12
I1
sa(dp883
g5
I0
sg6
S'Rear'
p884
sg8
S'person'
p885
sg10
(lp886
I439
aI170
aI458
aI216
asg12
I1
sa(dp887
g5
I0
sg6
S'Unspecified'
p888
sg8
S'person'
p889
sg10
(lp890
I247
aI142
aI288
aI197
asg12
I1
sa(dp891
g5
I0
sg6
S'Unspecified'
p892
sg8
S'person'
p893
sg10
(lp894
I44
aI162
aI84
aI286
asg12
I0
sa(dp895
g5
I0
sg6
S'Unspecified'
p896
sg8
S'person'
p897
sg10
(lp898
I77
aI157
aI120
aI245
asg12
I1
sa(dp899
g5
I0
sg6
S'Rear'
p900
sg8
S'person'
p901
sg10
(lp902
I1
aI159
aI26
aI283
asg12
I1
sa(dp903
g5
I0
sg6
S'Right'
p904
sg8
S'person'
p905
sg10
(lp906
I24
aI174
aI45
aI201
asg12
I0
sasS'000075'
p907
(lp908
(dp909
g5
I0
sg6
S'Frontal'
p910
sg8
S'dog'
p911
sg10
(lp912
I102
aI83
aI222
aI348
asg12
I0
sasS'000074'
p913
(lp914
(dp915
g5
I0
sg6
S'Rear'
p916
sg8
S'car'
p917
sg10
(lp918
I58
aI61
aI475
aI283
asg12
I0
sasS'000079'
p919
(lp920
(dp921
g5
I0
sg6
S'Unspecified'
p922
sg8
S'dog'
p923
sg10
(lp924
I1
aI53
aI390
aI357
asg12
I1
sasS'000078'
p925
(lp926
(dp927
g5
I0
sg6
S'Unspecified'
p928
sg8
S'dog'
p929
sg10
(lp930
I15
aI75
aI475
aI412
asg12
I0
sa(dp931
g5
I0
sg6
S'Unspecified'
p932
sg8
S'dog'
p933
sg10
(lp934
I94
aI41
aI437
aI238
asg12
I0
sasS'000088'
p935
(lp936
(dp937
g5
I0
sg6
S'Frontal'
p938
sg8
S'train'
p939
sg10
(lp940
I123
aI7
aI500
aI365
asg12
I1
sasS'000089'
p941
(lp942
(dp943
g5
I0
sg6
S'Unspecified'
p944
sg8
S'person'
p945
sg10
(lp946
I20
aI7
aI183
aI355
asg12
I0
sa(dp947
g5
I0
sg6
S'Unspecified'
p948
sg8
S'person'
p949
sg10
(lp950
I98
aI215
aI429
aI374
asg12
I1
sa(dp951
g5
I0
sg6
S'Unspecified'
p952
sg8
S'person'
p953
sg10
(lp954
I332
aI140
aI455
aI366
asg12
I1
sa(dp955
g5
I0
sg6
S'Unspecified'
p956
sg8
S'chair'
p957
sg10
(lp958
I22
aI51
aI317
aI291
asg12
I0
sasS'000086'
p959
(lp960
(dp961
g5
I0
sg6
S'Left'
p962
sg8
S'dog'
p963
sg10
(lp964
I308
aI131
aI356
aI173
asg12
I0
sa(dp965
g5
I1
sg6
S'Unspecified'
p966
sg8
S'dog'
p967
sg10
(lp968
I224
aI143
aI274
aI182
asg12
I0
sa(dp969
g5
I1
sg6
S'Unspecified'
p970
sg8
S'dog'
p971
sg10
(lp972
I270
aI125
aI298
aI153
asg12
I0
sasS'000087'
p973
(lp974
(dp975
g5
I0
sg6
S'Left'
p976
sg8
S'train'
p977
sg10
(lp978
I120
aI166
aI318
aI204
asg12
I0
sasS'000084'
p979
(lp980
(dp981
g5
I0
sg6
S'Unspecified'
p982
sg8
S'chair'
p983
sg10
(lp984
I339
aI156
aI390
aI235
asg12
I0
sa(dp985
g5
I0
sg6
S'Left'
p986
sg8
S'chair'
p987
sg10
(lp988
I291
aI171
aI346
aI273
asg12
I0
sa(dp989
g5
I1
sg6
S'Unspecified'
p990
sg8
S'chair'
p991
sg10
(lp992
I224
aI165
aI263
aI185
asg12
I1
sa(dp993
g5
I0
sg6
S'Right'
p994
sg8
S'chair'
p995
sg10
(lp996
I142
aI174
aI193
aI276
asg12
I0
sa(dp997
g5
I0
sg6
S'Rear'
p998
sg8
S'chair'
p999
sg10
(lp1000
I232
aI192
aI291
aI303
asg12
I0
sa(dp1001
g5
I1
sg6
S'Unspecified'
p1002
sg8
S'sofa'
p1003
sg10
(lp1004
I1
aI276
aI139
aI375
asg12
I1
sa(dp1005
g5
I0
sg6
S'Unspecified'
p1006
sg8
S'diningtable'
p1007
sg10
(lp1008
I156
aI182
aI332
aI281
asg12
I0
sasS'000085'
p1009
(lp1010
(dp1011
g5
I1
sg6
S'Unspecified'
p1012
sg8
S'chair'
p1013
sg10
(lp1014
I6
aI104
aI218
aI278
asg12
I1
sa(dp1015
g5
I1
sg6
S'Unspecified'
p1016
sg8
S'diningtable'
p1017
sg10
(lp1018
I181
aI175
aI499
aI329
asg12
I1
sa(dp1019
g5
I0
sg6
S'Unspecified'
p1020
sg8
S'person'
p1021
sg10
(lp1022
I22
aI70
aI254
aI327
asg12
I1
sa(dp1023
g5
I0
sg6
S'Unspecified'
p1024
sg8
S'person'
p1025
sg10
(lp1026
I338
aI12
aI500
aI199
asg12
I1
sasS'000082'
p1027
(lp1028
(dp1029
g5
I0
sg6
S'Unspecified'
p1030
sg8
S'car'
p1031
sg10
(lp1032
I22
aI93
aI493
aI298
asg12
I0
sa(dp1033
g5
I0
sg6
S'Unspecified'
p1034
sg8
S'car'
p1035
sg10
(lp1036
I1
aI1
aI207
aI88
asg12
I1
sasS'000083'
p1037
(lp1038
(dp1039
g5
I0
sg6
S'Rear'
p1040
sg8
S'car'
p1041
sg10
(lp1042
I109
aI33
aI447
aI309
asg12
I0
sa(dp1043
g5
I0
sg6
S'Unspecified'
p1044
sg8
S'person'
p1045
sg10
(lp1046
I380
aI2
aI435
aI135
asg12
I0
sa(dp1047
g5
I0
sg6
S'Unspecified'
p1048
sg8
S'person'
p1049
sg10
(lp1050
I138
aI14
aI193
aI115
asg12
I1
sa(dp1051
g5
I0
sg6
S'Unspecified'
p1052
sg8
S'person'
p1053
sg10
(lp1054
I1
aI20
aI75
aI204
asg12
I1
sa(dp1055
g5
I0
sg6
S'Unspecified'
p1056
sg8
S'person'
p1057
sg10
(lp1058
I60
aI48
aI114
aI156
asg12
I0
sa(dp1059
g5
I0
sg6
S'Unspecified'
p1060
sg8
S'person'
p1061
sg10
(lp1062
I32
aI51
aI83
aI162
asg12
I1
sasS'000080'
p1063
(lp1064
(dp1065
g5
I1
sg6
S'Unspecified'
p1066
sg8
S'boat'
p1067
sg10
(lp1068
I440
aI226
aI455
aI261
asg12
I0
sa(dp1069
g5
I1
sg6
S'Unspecified'
p1070
sg8
S'boat'
p1071
sg10
(lp1072
I398
aI216
aI421
aI306
asg12
I0
sa(dp1073
g5
I1
sg6
S'Unspecified'
p1074
sg8
S'boat'
p1075
sg10
(lp1076
I307
aI229
aI320
aI259
asg12
I0
sa(dp1077
g5
I0
sg6
S'Unspecified'
p1078
sg8
S'boat'
p1079
sg10
(lp1080
I246
aI202
aI269
aI282
asg12
I0
sa(dp1081
g5
I1
sg6
S'Unspecified'
p1082
sg8
S'boat'
p1083
sg10
(lp1084
I187
aI223
aI209
aI287
asg12
I0
sa(dp1085
g5
I1
sg6
S'Unspecified'
p1086
sg8
S'boat'
p1087
sg10
(lp1088
I186
aI202
aI210
aI263
asg12
I0
sa(dp1089
g5
I0
sg6
S'Unspecified'
p1090
sg8
S'boat'
p1091
sg10
(lp1092
I70
aI243
aI111
aI274
asg12
I0
sa(dp1093
g5
I1
sg6
S'Unspecified'
p1094
sg8
S'boat'
p1095
sg10
(lp1096
I1
aI276
aI38
aI300
asg12
I1
sa(dp1097
g5
I1
sg6
S'Unspecified'
p1098
sg8
S'boat'
p1099
sg10
(lp1100
I12
aI240
aI33
aI258
asg12
I0
sasS'000081'
p1101
(lp1102
(dp1103
g5
I0
sg6
S'Frontal'
p1104
sg8
S'sofa'
p1105
sg10
(lp1106
I235
aI158
aI462
aI282
asg12
I0
sa(dp1107
g5
I1
sg6
S'Unspecified'
p1108
sg8
S'sofa'
p1109
sg10
(lp1110
I8
aI166
aI220
aI322
asg12
I1
sa(dp1111
g5
I0
sg6
S'Unspecified'
p1112
sg8
S'person'
p1113
sg10
(lp1114
I198
aI156
aI341
aI231
asg12
I0
sa(dp1115
g5
I0
sg6
S'Unspecified'
p1116
sg8
S'person'
p1117
sg10
(lp1118
I349
aI145
aI451
aI266
asg12
I1
sa(dp1119
g5
I0
sg6
S'Unspecified'
p1120
sg8
S'person'
p1121
sg10
(lp1122
I61
aI162
aI170
aI333
asg12
I1
sa(dp1123
g5
I0
sg6
S'Unspecified'
p1124
sg8
S'person'
p1125
sg10
(lp1126
I29
aI166
aI73
aI213
asg12
I1
sa(dp1127
g5
I0
sg6
S'Unspecified'
p1128
sg8
S'person'
p1129
sg10
(lp1130
I298
aI246
aI433
aI333
asg12
I1
sa(dp1131
g5
I0
sg6
S'Unspecified'
p1132
sg8
S'person'
p1133
sg10
(lp1134
I196
aI215
aI332
aI330
asg12
I1
sa(dp1135
g5
I0
sg6
S'Unspecified'
p1136
sg8
S'person'
p1137
sg10
(lp1138
I270
aI298
aI324
aI333
asg12
I1
sasS'000006'
p1139
(lp1140
(dp1141
g5
I0
sg6
S'Unspecified'
p1142
sg8
S'pottedplant'
p1143
sg10
(lp1144
I187
aI135
aI282
aI242
asg12
I0
sa(dp1145
g5
I0
sg6
S'Unspecified'
p1146
sg8
S'diningtable'
p1147
sg10
(lp1148
I154
aI209
aI369
aI375
asg12
I1
sa(dp1149
g5
I0
sg6
S'Left'
p1150
sg8
S'chair'
p1151
sg10
(lp1152
I255
aI207
aI366
aI375
asg12
I1
sa(dp1153
g5
I1
sg6
S'Unspecified'
p1154
sg8
S'chair'
p1155
sg10
(lp1156
I298
aI195
aI332
aI247
asg12
I1
sa(dp1157
g5
I1
sg6
S'Unspecified'
p1158
sg8
S'chair'
p1159
sg10
(lp1160
I279
aI190
aI308
aI231
asg12
I1
sa(dp1161
g5
I1
sg6
S'Unspecified'
p1162
sg8
S'chair'
p1163
sg10
(lp1164
I137
aI192
aI151
aI199
asg12
I1
sa(dp1165
g5
I1
sg6
S'Unspecified'
p1166
sg8
S'chair'
p1167
sg10
(lp1168
I137
aI198
aI156
aI212
asg12
I1
sa(dp1169
g5
I0
sg6
S'Right'
p1170
sg8
S'chair'
p1171
sg10
(lp1172
I138
aI211
aI249
aI375
asg12
I1
sasS'000007'
p1173
(lp1174
(dp1175
g5
I0
sg6
S'Unspecified'
p1176
sg8
S'car'
p1177
sg10
(lp1178
I141
aI50
aI500
aI330
asg12
I1
sasS'000004'
p1179
(lp1180
(dp1181
g5
I0
sg6
S'Frontal'
p1182
sg8
S'car'
p1183
sg10
(lp1184
I13
aI311
aI84
aI362
asg12
I0
sa(dp1185
g5
I0
sg6
S'Unspecified'
p1186
sg8
S'car'
p1187
sg10
(lp1188
I362
aI330
aI500
aI389
asg12
I1
sa(dp1189
g5
I0
sg6
S'Unspecified'
p1190
sg8
S'car'
p1191
sg10
(lp1192
I235
aI328
aI334
aI375
asg12
I0
sa(dp1193
g5
I0
sg6
S'Unspecified'
p1194
sg8
S'car'
p1195
sg10
(lp1196
I175
aI327
aI252
aI364
asg12
I0
sa(dp1197
g5
I0
sg6
S'Unspecified'
p1198
sg8
S'car'
p1199
sg10
(lp1200
I139
aI320
aI189
aI359
asg12
I0
sa(dp1201
g5
I0
sg6
S'Unspecified'
p1202
sg8
S'car'
p1203
sg10
(lp1204
I108
aI325
aI150
aI353
asg12
I0
sa(dp1205
g5
I0
sg6
S'Unspecified'
p1206
sg8
S'car'
p1207
sg10
(lp1208
I84
aI323
aI121
aI350
asg12
I0
sasS'000005'
p1209
(lp1210
(dp1211
g5
I0
sg6
S'Rear'
p1212
sg8
S'chair'
p1213
sg10
(lp1214
I263
aI211
aI324
aI339
asg12
I0
sa(dp1215
g5
I0
sg6
S'Unspecified'
p1216
sg8
S'chair'
p1217
sg10
(lp1218
I165
aI264
aI253
aI372
asg12
I0
sa(dp1219
g5
I1
sg6
S'Unspecified'
p1220
sg8
S'chair'
p1221
sg10
(lp1222
I5
aI244
aI67
aI374
asg12
I1
sa(dp1223
g5
I0
sg6
S'Unspecified'
p1224
sg8
S'chair'
p1225
sg10
(lp1226
I241
aI194
aI295
aI299
asg12
I0
sa(dp1227
g5
I1
sg6
S'Unspecified'
p1228
sg8
S'chair'
p1229
sg10
(lp1230
I277
aI186
aI312
aI220
asg12
I1
sasS'000002'
p1231
(lp1232
(dp1233
g5
I0
sg6
S'Unspecified'
p1234
sg8
S'train'
p1235
sg10
(lp1236
I139
aI200
aI207
aI301
asg12
I0
sasS'000003'
p1237
(lp1238
(dp1239
g5
I0
sg6
S'Unspecified'
p1240
sg8
S'sofa'
p1241
sg10
(lp1242
I123
aI155
aI215
aI195
asg12
I0
sa(dp1243
g5
I0
sg6
S'Left'
p1244
sg8
S'chair'
p1245
sg10
(lp1246
I239
aI156
aI307
aI205
asg12
I0
sasS'000001'
p1247
(lp1248
(dp1249
g5
I0
sg6
S'Left'
p1250
sg8
S'dog'
p1251
sg10
(lp1252
I48
aI240
aI195
aI371
asg12
I1
sa(dp1253
g5
I0
sg6
S'Left'
p1254
sg8
S'person'
p1255
sg10
(lp1256
I8
aI12
aI352
aI498
asg12
I1
sasS'000008'
p1257
(lp1258
(dp1259
g5
I0
sg6
S'Frontal'
p1260
sg8
S'chair'
p1261
sg10
(lp1262
I192
aI16
aI364
aI249
asg12
I0
sasS'000009'
p1263
(lp1264
(dp1265
g5
I0
sg6
S'Right'
p1266
sg8
S'horse'
p1267
sg10
(lp1268
I69
aI172
aI270
aI330
asg12
I0
sa(dp1269
g5
I0
sg6
S'Right'
p1270
sg8
S'person'
p1271
sg10
(lp1272
I150
aI141
aI229
aI284
asg12
I0
sa(dp1273
g5
I0
sg6
S'Right'
p1274
sg8
S'person'
p1275
sg10
(lp1276
I285
aI201
aI327
aI331
asg12
I0
sa(dp1277
g5
I0
sg6
S'Left'
p1278
sg8
S'person'
p1279
sg10
(lp1280
I258
aI198
aI297
aI329
asg12
I0
sas.