(dp1
S'00010000_640x480'
p2
(lp3
(dp4
S'difficult'
p5
I0
sS'pose'
p6
S'Unspecified'
p7
sS'name'
p8
S'person'
p9
sS'bbox'
p10
(lp11
I262
aI152
aI289
aI192
asS'truncated'
p12
I0
sa(dp13
g5
I0
sg6
S'Unspecified'
p14
sg8
S'person'
p15
sg10
(lp16
I151
aI117
aI169
aI142
asg12
I0
sasS'00011000_640x480'
p17
(lp18
(dp19
g5
I0
sg6
S'Unspecified'
p20
sg8
S'person'
p21
sg10
(lp22
I324
aI213
aI360
aI264
asg12
I0
sa(dp23
g5
I0
sg6
S'Unspecified'
p24
sg8
S'person'
p25
sg10
(lp26
I378
aI99
aI400
aI127
asg12
I0
sa(dp27
g5
I0
sg6
S'Unspecified'
p28
sg8
S'person'
p29
sg10
(lp30
I98
aI175
aI124
aI202
asg12
I0
sasS'00000000_640x480'
p31
(lp32
(dp33
g5
I0
sg6
S'Unspecified'
p34
sg8
S'person'
p35
sg10
(lp36
I224
aI133
aI240
aI154
asg12
I0
sa(dp37
g5
I0
sg6
S'Unspecified'
p38
sg8
S'person'
p39
sg10
(lp40
I348
aI98
aI362
aI118
asg12
I0
sa(dp41
g5
I0
sg6
S'Unspecified'
p42
sg8
S'person'
p43
sg10
(lp44
I464
aI140
aI478
aI162
asg12
I0
sa(dp45
g5
I0
sg6
S'Unspecified'
p46
sg8
S'person'
p47
sg10
(lp48
I156
aI118
aI170
aI136
asg12
I0
sasS'00005000_640x480'
p49
(lp50
(dp51
g5
I0
sg6
S'Unspecified'
p52
sg8
S'person'
p53
sg10
(lp54
I154
aI120
aI169
aI141
asg12
I0
sa(dp55
g5
I0
sg6
S'Unspecified'
p56
sg8
S'person'
p57
sg10
(lp58
I181
aI97
aI198
aI118
asg12
I0
sa(dp59
g5
I0
sg6
S'Unspecified'
p60
sg8
S'person'
p61
sg10
(lp62
I221
aI126
aI240
aI150
asg12
I0
sa(dp63
g5
I0
sg6
S'Unspecified'
p64
sg8
S'person'
p65
sg10
(lp66
I335
aI173
aI364
aI212
asg12
I0
sa(dp67
g5
I0
sg6
S'Unspecified'
p68
sg8
S'person'
p69
sg10
(lp70
I479
aI205
aI509
aI245
asg12
I0
sa(dp71
g5
I0
sg6
S'Unspecified'
p72
sg8
S'person'
p73
sg10
(lp74
I386
aI98
aI405
aI117
asg12
I0
sasS'00002000_640x480'
p75
(lp76
(dp77
g5
I0
sg6
S'Unspecified'
p78
sg8
S'person'
p79
sg10
(lp80
I223
aI131
aI239
aI154
asg12
I0
sa(dp81
g5
I0
sg6
S'Unspecified'
p82
sg8
S'person'
p83
sg10
(lp84
I251
aI112
aI266
aI137
asg12
I0
sa(dp85
g5
I0
sg6
S'Unspecified'
p86
sg8
S'person'
p87
sg10
(lp88
I157
aI120
aI171
aI137
asg12
I0
sa(dp89
g5
I0
sg6
S'Unspecified'
p90
sg8
S'person'
p91
sg10
(lp92
I400
aI101
aI419
aI122
asg12
I0
sa(dp93
g5
I0
sg6
S'Unspecified'
p94
sg8
S'person'
p95
sg10
(lp96
I465
aI187
aI486
aI215
asg12
I0
sa(dp97
g5
I0
sg6
S'Unspecified'
p98
sg8
S'person'
p99
sg10
(lp100
I476
aI206
aI507
aI242
asg12
I0
sasS'00008000_640x480'
p101
(lp102
(dp103
g5
I0
sg6
S'Unspecified'
p104
sg8
S'person'
p105
sg10
(lp106
I157
aI123
aI176
aI144
asg12
I0
sa(dp107
g5
I0
sg6
S'Unspecified'
p108
sg8
S'person'
p109
sg10
(lp110
I182
aI109
aI203
aI132
asg12
I0
sa(dp111
g5
I0
sg6
S'Unspecified'
p112
sg8
S'person'
p113
sg10
(lp114
I241
aI150
aI270
aI188
asg12
I0
sa(dp115
g5
I0
sg6
S'Unspecified'
p116
sg8
S'person'
p117
sg10
(lp118
I474
aI166
aI500
aI197
asg12
I0
sasS'00004000_640x480'
p119
(lp120
(dp121
g5
I0
sg6
S'Unspecified'
p122
sg8
S'person'
p123
sg10
(lp124
I154
aI118
aI169
aI141
asg12
I0
sa(dp125
g5
I0
sg6
S'Unspecified'
p126
sg8
S'person'
p127
sg10
(lp128
I180
aI97
aI198
aI112
asg12
I0
sa(dp129
g5
I0
sg6
S'Unspecified'
p130
sg8
S'person'
p131
sg10
(lp132
I224
aI131
aI242
aI155
asg12
I0
sa(dp133
g5
I0
sg6
S'Unspecified'
p134
sg8
S'person'
p135
sg10
(lp136
I256
aI112
aI274
aI134
asg12
I0
sa(dp137
g5
I0
sg6
S'Unspecified'
p138
sg8
S'person'
p139
sg10
(lp140
I398
aI100
aI413
aI120
asg12
I0
sa(dp141
g5
I0
sg6
S'Unspecified'
p142
sg8
S'person'
p143
sg10
(lp144
I473
aI144
aI489
aI169
asg12
I0
sasS'00009000_640x480'
p145
(lp146
(dp147
g5
I0
sg6
S'Unspecified'
p148
sg8
S'person'
p149
sg10
(lp150
I160
aI120
aI175
aI143
asg12
I0
sa(dp151
g5
I0
sg6
S'Unspecified'
p152
sg8
S'person'
p153
sg10
(lp154
I175
aI96
aI193
aI115
asg12
I0
sa(dp155
g5
I0
sg6
S'Unspecified'
p156
sg8
S'person'
p157
sg10
(lp158
I331
aI169
aI364
aI212
asg12
I0
sa(dp159
g5
I0
sg6
S'Unspecified'
p160
sg8
S'person'
p161
sg10
(lp162
I101
aI176
aI123
aI204
asg12
I0
sasS'00006000_640x480'
p163
(lp164
(dp165
g5
I0
sg6
S'Unspecified'
p166
sg8
S'person'
p167
sg10
(lp168
I155
aI119
aI172
aI141
asg12
I0
sa(dp169
g5
I0
sg6
S'Unspecified'
p170
sg8
S'person'
p171
sg10
(lp172
I182
aI99
aI198
aI116
asg12
I0
sa(dp173
g5
I0
sg6
S'Unspecified'
p174
sg8
S'person'
p175
sg10
(lp176
I224
aI131
aI241
aI153
asg12
I0
sa(dp177
g5
I0
sg6
S'Unspecified'
p178
sg8
S'person'
p179
sg10
(lp180
I352
aI118
aI373
aI149
asg12
I0
sa(dp181
g5
I0
sg6
S'Unspecified'
p182
sg8
S'person'
p183
sg10
(lp184
I469
aI156
aI484
aI178
asg12
I0
sa(dp185
g5
I0
sg6
S'Unspecified'
p186
sg8
S'person'
p187
sg10
(lp188
I402
aI104
aI421
aI123
asg12
I0
sasS'00007000_640x480'
p189
(lp190
(dp191
g5
I0
sg6
S'Unspecified'
p192
sg8
S'person'
p193
sg10
(lp194
I156
aI119
aI169
aI140
asg12
I0
sa(dp195
g5
I0
sg6
S'Unspecified'
p196
sg8
S'person'
p197
sg10
(lp198
I183
aI99
aI196
aI113
asg12
I0
sa(dp199
g5
I0
sg6
S'Unspecified'
p200
sg8
S'person'
p201
sg10
(lp202
I225
aI129
aI240
aI153
asg12
I0
sa(dp203
g5
I0
sg6
S'Unspecified'
p204
sg8
S'person'
p205
sg10
(lp206
I252
aI111
aI272
aI133
asg12
I0
sa(dp207
g5
I0
sg6
S'Unspecified'
p208
sg8
S'person'
p209
sg10
(lp210
I355
aI123
aI373
aI153
asg12
I0
sa(dp211
g5
I0
sg6
S'Unspecified'
p212
sg8
S'person'
p213
sg10
(lp214
I386
aI101
aI403
aI121
asg12
I0
sa(dp215
g5
I0
sg6
S'Unspecified'
p216
sg8
S'person'
p217
sg10
(lp218
I464
aI151
aI480
aI182
asg12
I0
sa(dp219
g5
I0
sg6
S'Unspecified'
p220
sg8
S'person'
p221
sg10
(lp222
I279
aI299
aI321
aI358
asg12
I0
sas.